; ModuleID = 'bench/php/original/zend_accelerator_debug.ll'
source_filename = "bench/php/original/zend_accelerator_debug.ll"
target datalayout = "e-m:e-p270:32:32-p271:32:32-p272:64:64-i64:64-i128:128-f80:128-n8:16:32:64-S128"
target triple = "x86_64-pc-linux-gnu"

%struct._zend_accel_globals = type { i8, i8, i8, i8, i8, %struct._zend_accel_directives, ptr, ptr, [32 x i8], [32 x i8], i32, i8, i32, i8, i32, i64, i64, %struct._zend_array, i64, ptr, ptr, ptr, ptr, ptr }
%struct._zend_accel_directives = type { i64, i64, double, ptr, i64, i8, i8, i8, i8, i8, i8, i8, i8, i8, i8, i8, i64, i64, ptr, ptr, i64, i64, i64, i64, i64, ptr, ptr, ptr, i8, i8, i8, i8, ptr, ptr }
%struct._zend_array = type { %struct._zend_refcounted_h, %union.anon.0, i32, %union.anon.1, i32, i32, i32, i32, i64, ptr }
%struct._zend_refcounted_h = type { i32, %union.anon }
%union.anon = type { i32 }
%union.anon.0 = type { i32 }
%union.anon.1 = type { ptr }
%struct.__va_list_tag = type { i32, i32, ptr, ptr }

@accel_globals = external local_unnamed_addr global %struct._zend_accel_globals, align 8
@.str = private unnamed_addr constant [7 x i8] c"stderr\00", align 1
@stderr = external local_unnamed_addr global ptr, align 8
@.str.1 = private unnamed_addr constant [2 x i8] c"a\00", align 1
@.str.2 = private unnamed_addr constant [10 x i8] c"%s (%d): \00", align 1
@.str.3 = private unnamed_addr constant [13 x i8] c"Fatal Error \00", align 1
@.str.4 = private unnamed_addr constant [7 x i8] c"Error \00", align 1
@.str.5 = private unnamed_addr constant [9 x i8] c"Warning \00", align 1
@.str.6 = private unnamed_addr constant [9 x i8] c"Message \00", align 1
@.str.7 = private unnamed_addr constant [7 x i8] c"Debug \00", align 1
@.str.9 = private unnamed_addr constant [117 x i8] c"/home/dtcxzyw/WorkSpace/Projects/compilers/llvm-opt-benchmark/bench/php/php-src/ext/opcache/zend_accelerator_debug.c\00", align 1

; Function Attrs: nounwind uwtable
define hidden void @zend_accel_error(i32 noundef %0, ptr noundef readonly captures(none) %1, ...) local_unnamed_addr #0 {
  %3 = alloca [1 x %struct.__va_list_tag], align 16
  call void @llvm.lifetime.start.p0(i64 24, ptr nonnull %3) #12
  call void @llvm.va_start.p0(ptr nonnull %3)
  call fastcc void @zend_accel_error_va_args(i32 noundef %0, ptr noundef %1, ptr noundef %3)
  call void @llvm.va_end.p0(ptr nonnull %3)
  call void @llvm.lifetime.end.p0(i64 24, ptr nonnull %3) #12
  ret void
}

; Function Attrs: mustprogress nocallback nofree nosync nounwind willreturn memory(argmem: readwrite)
declare void @llvm.lifetime.start.p0(i64 immarg, ptr captures(none)) #1

; Function Attrs: mustprogress nocallback nofree nosync nounwind willreturn
declare void @llvm.va_start.p0(ptr) #2

; Function Attrs: nounwind uwtable
define internal fastcc void @zend_accel_error_va_args(i32 noundef %0, ptr noundef readonly captures(none) %1, ptr noundef nonnull %2) unnamed_addr #0 {
  %4 = alloca i64, align 8
  call void @llvm.lifetime.start.p0(i64 8, ptr nonnull %4) #12
  %5 = sext i32 %0 to i64
  %6 = load i64, ptr getelementptr inbounds nuw (i8, ptr @accel_globals, i64 96), align 8, !tbaa !4
  %.not = icmp slt i64 %6, %5
  br i1 %.not, label %42, label %7

7:                                                ; preds = %3
  %8 = tail call i64 @time(ptr noundef null) #12
  store i64 %8, ptr %4, align 8, !tbaa !20
  %9 = call ptr @localtime(ptr noundef nonnull %4) #12
  %10 = call ptr @asctime(ptr noundef %9) #12
  %11 = getelementptr inbounds nuw i8, ptr %10, i64 24
  store i8 0, ptr %11, align 1, !tbaa !21
  %12 = load ptr, ptr getelementptr inbounds nuw (i8, ptr @accel_globals, i64 80), align 8, !tbaa !22
  %.not20 = icmp eq ptr %12, null
  br i1 %.not20, label %18, label %13

13:                                               ; preds = %7
  %14 = load i8, ptr %12, align 1, !tbaa !21
  %.not21 = icmp eq i8 %14, 0
  br i1 %.not21, label %18, label %15

15:                                               ; preds = %13
  %16 = call i32 @strcmp(ptr noundef nonnull dereferenceable(1) %12, ptr noundef nonnull dereferenceable(7) @.str) #13
  %17 = icmp eq i32 %16, 0
  br i1 %17, label %18, label %20

18:                                               ; preds = %15, %13, %7
  %19 = load ptr, ptr @stderr, align 8, !tbaa !23
  br label %23

20:                                               ; preds = %15
  %21 = call noalias ptr @fopen(ptr noundef nonnull %12, ptr noundef nonnull @.str.1)
  %.not22 = icmp eq ptr %21, null
  %22 = load ptr, ptr @stderr, align 8
  %spec.select = select i1 %.not22, ptr %22, ptr %21
  br label %23

23:                                               ; preds = %20, %18
  %.0 = phi ptr [ %19, %18 ], [ %spec.select, %20 ]
  %24 = call i32 @getpid() #12
  %25 = call i32 (ptr, ptr, ...) @fprintf(ptr noundef %.0, ptr noundef nonnull @.str.2, ptr noundef nonnull %10, i32 noundef %24) #12
  switch i32 %0, label %36 [
    i32 0, label %26
    i32 1, label %28
    i32 2, label %30
    i32 3, label %32
    i32 4, label %34
  ]

26:                                               ; preds = %23
  %27 = call i64 @fwrite(ptr nonnull @.str.3, i64 12, i64 1, ptr %.0)
  br label %36

28:                                               ; preds = %23
  %29 = call i64 @fwrite(ptr nonnull @.str.4, i64 6, i64 1, ptr %.0)
  br label %36

30:                                               ; preds = %23
  %31 = call i64 @fwrite(ptr nonnull @.str.5, i64 8, i64 1, ptr %.0)
  br label %36

32:                                               ; preds = %23
  %33 = call i64 @fwrite(ptr nonnull @.str.6, i64 8, i64 1, ptr %.0)
  br label %36

34:                                               ; preds = %23
  %35 = call i64 @fwrite(ptr nonnull @.str.7, i64 6, i64 1, ptr %.0)
  br label %36

36:                                               ; preds = %34, %32, %30, %28, %26, %23
  %37 = call i32 @vfprintf(ptr noundef %.0, ptr noundef %1, ptr noundef nonnull %2) #12
  %fputc = call i32 @fputc(i32 10, ptr %.0)
  %38 = call i32 @fflush(ptr noundef %.0)
  %39 = load ptr, ptr @stderr, align 8, !tbaa !23
  %.not23 = icmp eq ptr %.0, %39
  br i1 %.not23, label %42, label %40

40:                                               ; preds = %36
  %41 = call i32 @fclose(ptr noundef %.0)
  br label %42

42:                                               ; preds = %36, %40, %3
  switch i32 %0, label %45 [
    i32 1, label %43
    i32 0, label %44
  ]

43:                                               ; preds = %42
  call void @_zend_bailout(ptr noundef nonnull @.str.9, i32 noundef 90) #14
  unreachable

44:                                               ; preds = %42
  call void @exit(i32 noundef -2) #15
  unreachable

45:                                               ; preds = %42
  call void @llvm.lifetime.end.p0(i64 8, ptr nonnull %4) #12
  ret void
}

; Function Attrs: mustprogress nocallback nofree nosync nounwind willreturn
declare void @llvm.va_end.p0(ptr) #2

; Function Attrs: mustprogress nocallback nofree nosync nounwind willreturn memory(argmem: readwrite)
declare void @llvm.lifetime.end.p0(i64 immarg, ptr captures(none)) #1

; Function Attrs: cold noreturn nounwind uwtable
define hidden void @zend_accel_error_noreturn(i32 noundef %0, ptr noundef readonly captures(none) %1, ...) local_unnamed_addr #3 {
  %3 = alloca [1 x %struct.__va_list_tag], align 16
  call void @llvm.lifetime.start.p0(i64 24, ptr nonnull %3) #12
  call void @llvm.va_start.p0(ptr nonnull %3)
  %4 = icmp ult i32 %0, 2
  call void @llvm.assume(i1 %4)
  call fastcc void @zend_accel_error_va_args(i32 noundef %0, ptr noundef %1, ptr noundef %3)
  call void @llvm.va_end.p0(ptr nonnull %3)
  call void @abort() #14
  unreachable
}

; Function Attrs: mustprogress nocallback nofree nosync nounwind willreturn memory(inaccessiblemem: write)
declare void @llvm.assume(i1 noundef) #4

; Function Attrs: cold nofree noreturn nounwind
declare void @abort() local_unnamed_addr #5

; Function Attrs: nounwind
declare i64 @time(ptr noundef) local_unnamed_addr #6

; Function Attrs: nounwind
declare ptr @asctime(ptr noundef) local_unnamed_addr #6

; Function Attrs: nounwind
declare ptr @localtime(ptr noundef) local_unnamed_addr #6

; Function Attrs: mustprogress nofree nounwind willreturn memory(argmem: read)
declare i32 @strcmp(ptr noundef captures(none), ptr noundef captures(none)) local_unnamed_addr #7

; Function Attrs: nofree nounwind
declare noalias noundef ptr @fopen(ptr noundef readonly captures(none), ptr noundef readonly captures(none)) local_unnamed_addr #8

; Function Attrs: nofree nounwind
declare noundef i32 @fprintf(ptr noundef captures(none), ptr noundef readonly captures(none), ...) local_unnamed_addr #8

; Function Attrs: nounwind
declare i32 @getpid() local_unnamed_addr #6

; Function Attrs: nofree nounwind
declare noundef i32 @vfprintf(ptr noundef captures(none), ptr noundef readonly captures(none), ptr noundef) local_unnamed_addr #8

; Function Attrs: nofree nounwind
declare noundef i32 @fflush(ptr noundef captures(none)) local_unnamed_addr #8

; Function Attrs: nofree nounwind
declare noundef i32 @fclose(ptr noundef captures(none)) local_unnamed_addr #8

; Function Attrs: noreturn
declare void @_zend_bailout(ptr noundef, i32 noundef) local_unnamed_addr #9

; Function Attrs: nofree noreturn nounwind
declare void @exit(i32 noundef) local_unnamed_addr #10

; Function Attrs: nofree nounwind
declare noundef i64 @fwrite(ptr noundef captures(none), i64 noundef, i64 noundef, ptr noundef captures(none)) local_unnamed_addr #11

; Function Attrs: nofree nounwind
declare noundef i32 @fputc(i32 noundef, ptr noundef captures(none)) local_unnamed_addr #11


!llvm.module.flags = !{!0, !1, !2, !3}

!0 = !{i32 1, !"wchar_size", i32 4}
!1 = !{i32 8, !"PIC Level", i32 2}
!2 = !{i32 7, !"PIE Level", i32 2}
!3 = !{i32 7, !"uwtable", i32 2}
!4 = !{!5, !10, i64 96}
!5 = !{!"_zend_accel_globals", !6, i64 0, !6, i64 1, !6, i64 2, !6, i64 3, !6, i64 4, !9, i64 8, !14, i64 184, !14, i64 192, !7, i64 200, !7, i64 232, !15, i64 264, !6, i64 268, !15, i64 272, !6, i64 276, !15, i64 280, !10, i64 288, !10, i64 296, !16, i64 304, !10, i64 360, !13, i64 368, !18, i64 376, !19, i64 384, !18, i64 392, !14, i64 400}
!6 = !{!"_Bool", !7, i64 0}
!7 = !{!"omnipotent char", !8, i64 0}
!8 = !{!"Simple C/C++ TBAA"}
!9 = !{!"_zend_accel_directives", !10, i64 0, !10, i64 8, !11, i64 16, !12, i64 24, !10, i64 32, !6, i64 40, !6, i64 41, !6, i64 42, !6, i64 43, !6, i64 44, !6, i64 45, !6, i64 46, !6, i64 47, !6, i64 48, !6, i64 49, !6, i64 50, !10, i64 56, !10, i64 64, !12, i64 72, !12, i64 80, !10, i64 88, !10, i64 96, !10, i64 104, !10, i64 112, !10, i64 120, !12, i64 128, !12, i64 136, !12, i64 144, !6, i64 152, !6, i64 153, !6, i64 154, !6, i64 155, !12, i64 160, !12, i64 168}
!10 = !{!"long", !7, i64 0}
!11 = !{!"double", !7, i64 0}
!12 = !{!"p1 omnipotent char", !13, i64 0}
!13 = !{!"any pointer", !7, i64 0}
!14 = !{!"p1 _ZTS12_zend_string", !13, i64 0}
!15 = !{!"int", !7, i64 0}
!16 = !{!"_zend_array", !17, i64 0, !7, i64 8, !15, i64 12, !7, i64 16, !15, i64 24, !15, i64 28, !15, i64 32, !15, i64 36, !10, i64 40, !13, i64 48}
!17 = !{!"_zend_refcounted_h", !15, i64 0, !7, i64 4}
!18 = !{!"p1 _ZTS23_zend_persistent_script", !13, i64 0}
!19 = !{!"p1 _ZTS8_zend_op", !13, i64 0}
!20 = !{!10, !10, i64 0}
!21 = !{!7, !7, i64 0}
!22 = !{!5, !12, i64 80}
!23 = !{!24, !24, i64 0}
!24 = !{!"p1 _ZTS8_IO_FILE", !13, i64 0}
